target datalayout = "e-m:e-p270:32:32-p271:32:32-p272:64:64-i64:64-i128:128-f80:128-n8:16:32:64-S128"
target triple = "x86_64-pc-linux-gnu"

%struct.Obj = type { ptr, ptr, ptr, ptr, i8, i32, i32, i8, i8, i8, i8, i8, ptr, ptr, i8, ptr, ptr, ptr, ptr, ptr, i32, i8, i8, %struct.StringArray }
%struct.StringArray = type { ptr, i32, i32 }
%struct.Type = type { i32, i32, i32, i8, i8, ptr, ptr, ptr, ptr, i32, ptr, ptr, ptr, i8, i8, ptr, ptr, i8, ptr }

@.str.32 = private unnamed_addr constant [26 x i8] c"  movsd %%xmm0, %d(%%rbp)\00", align 1
@.str.46 = private unnamed_addr constant [27 x i8] c"  movss %%xmm%d, %d(%%rbp)\00", align 1
@.str.47 = private unnamed_addr constant [27 x i8] c"  movsd %%xmm%d, %d(%%rbp)\00", align 1
@.str.50 = private unnamed_addr constant [20 x i8] c"  mov %s, %d(%%rbp)\00", align 1
@.str.51 = private unnamed_addr constant [13 x i8] c"  shr $8, %s\00", align 1
@.str.54 = private unnamed_addr constant [4 x i8] c"%dl\00", align 1
@.str.72 = private unnamed_addr constant [5 x i8] c"%rdx\00", align 1
@.str.85 = private unnamed_addr constant [5 x i8] c"%rax\00", align 1
@.str.255 = private unnamed_addr constant [26 x i8] c"  movss %%xmm0, %d(%%rbp)\00", align 1
@.str.256 = private unnamed_addr constant [22 x i8] c"  mov %%al, %d(%%rbp)\00", align 1
@.str.257 = private unnamed_addr constant [16 x i8] c"  shr $8, %%rax\00", align 1
@.str.258 = private unnamed_addr constant [4 x i8] c"%al\00", align 1

; Function Attrs: nounwind uwtable
define internal zeroext i1 @has_flonum2(ptr noundef %0) #0 {
  %2 = alloca ptr, align 8
  store ptr %0, ptr %2, align 8, !tbaa !37
  %3 = load ptr, ptr %2, align 8, !tbaa !37
  %4 = call zeroext i1 @has_flonum(ptr noundef %3, i32 noundef 8, i32 noundef 16, i32 noundef 0)
  ret i1 %4
}

; Function Attrs: nounwind uwtable
define internal zeroext i1 @has_flonum1(ptr noundef %0) #0 {
  %2 = alloca ptr, align 8
  store ptr %0, ptr %2, align 8, !tbaa !37
  %3 = load ptr, ptr %2, align 8, !tbaa !37
  %4 = call zeroext i1 @has_flonum(ptr noundef %3, i32 noundef 0, i32 noundef 8, i32 noundef 0)
  ret i1 %4
}

; Function Attrs: nounwind uwtable
define internal void @copy_ret_buffer(ptr noundef %0) #0 {
  %2 = alloca ptr, align 8
  %3 = alloca ptr, align 8
  %4 = alloca i32, align 4
  %5 = alloca i32, align 4
  %6 = alloca i32, align 4
  %7 = alloca ptr, align 8
  %8 = alloca ptr, align 8
  %9 = alloca i32, align 4
  store ptr %0, ptr %2, align 8, !tbaa !11
  call void @llvm.lifetime.start.p0(i64 8, ptr %3) #8
  %10 = load ptr, ptr %2, align 8, !tbaa !11
  %11 = getelementptr inbounds nuw %struct.Obj, ptr %10, i32 0, i32 2
  %12 = load ptr, ptr %11, align 8, !tbaa !36
  store ptr %12, ptr %3, align 8, !tbaa !37
  call void @llvm.lifetime.start.p0(i64 4, ptr %4) #8
  store i32 0, ptr %4, align 4, !tbaa !7
  call void @llvm.lifetime.start.p0(i64 4, ptr %5) #8
  store i32 0, ptr %5, align 4, !tbaa !7
  %13 = load ptr, ptr %3, align 8, !tbaa !37
  %14 = call zeroext i1 @has_flonum1(ptr noundef %13)
  br i1 %14, label %15, label %31

15:                                               ; preds = %1
  %16 = load ptr, ptr %3, align 8, !tbaa !37
  %17 = getelementptr inbounds nuw %struct.Type, ptr %16, i32 0, i32 1
  %18 = load i32, ptr %17, align 4, !tbaa !41
  %19 = icmp eq i32 %18, 4
  br i1 %19, label %20, label %24

20:                                               ; preds = %15
  %21 = load ptr, ptr %2, align 8, !tbaa !11
  %22 = getelementptr inbounds nuw %struct.Obj, ptr %21, i32 0, i32 6
  %23 = load i32, ptr %22, align 8, !tbaa !43
  call void (ptr, ...) @println(ptr noundef @.str.255, i32 noundef %23)
  br label %28

24:                                               ; preds = %15
  %25 = load ptr, ptr %2, align 8, !tbaa !11
  %26 = getelementptr inbounds nuw %struct.Obj, ptr %25, i32 0, i32 6
  %27 = load i32, ptr %26, align 8, !tbaa !43
  call void (ptr, ...) @println(ptr noundef @.str.32, i32 noundef %27)
  br label %28

28:                                               ; preds = %24, %20
  %29 = load i32, ptr %5, align 4, !tbaa !7
  %30 = add nsw i32 %29, 1
  store i32 %30, ptr %5, align 4, !tbaa !7
  br label %59

31:                                               ; preds = %1
  call void @llvm.lifetime.start.p0(i64 4, ptr %6) #8
  store i32 0, ptr %6, align 4, !tbaa !7
  br label %32

32:                                               ; preds = %53, %31
  %33 = load i32, ptr %6, align 4, !tbaa !7
  %34 = load ptr, ptr %3, align 8, !tbaa !37
  %35 = getelementptr inbounds nuw %struct.Type, ptr %34, i32 0, i32 1
  %36 = load i32, ptr %35, align 4, !tbaa !41
  %37 = icmp slt i32 8, %36
  br i1 %37, label %38, label %39

38:                                               ; preds = %32
  br label %43

39:                                               ; preds = %32
  %40 = load ptr, ptr %3, align 8, !tbaa !37
  %41 = getelementptr inbounds nuw %struct.Type, ptr %40, i32 0, i32 1
  %42 = load i32, ptr %41, align 4, !tbaa !41
  br label %43

43:                                               ; preds = %39, %38
  %44 = phi i32 [ 8, %38 ], [ %42, %39 ]
  %45 = icmp slt i32 %33, %44
  br i1 %45, label %47, label %46

46:                                               ; preds = %43
  call void @llvm.lifetime.end.p0(i64 4, ptr %6) #8
  br label %56

47:                                               ; preds = %43
  %48 = load ptr, ptr %2, align 8, !tbaa !11
  %49 = getelementptr inbounds nuw %struct.Obj, ptr %48, i32 0, i32 6
  %50 = load i32, ptr %49, align 8, !tbaa !43
  %51 = load i32, ptr %6, align 4, !tbaa !7
  %52 = add nsw i32 %50, %51
  call void (ptr, ...) @println(ptr noundef @.str.256, i32 noundef %52)
  call void (ptr, ...) @println(ptr noundef @.str.257)
  br label %53

53:                                               ; preds = %47
  %54 = load i32, ptr %6, align 4, !tbaa !7
  %55 = add nsw i32 %54, 1
  store i32 %55, ptr %6, align 4, !tbaa !7
  br label %32, !llvm.loop !140

56:                                               ; preds = %46
  %57 = load i32, ptr %4, align 4, !tbaa !7
  %58 = add nsw i32 %57, 1
  store i32 %58, ptr %4, align 4, !tbaa !7
  br label %59

59:                                               ; preds = %56, %28
  %60 = load ptr, ptr %3, align 8, !tbaa !37
  %61 = getelementptr inbounds nuw %struct.Type, ptr %60, i32 0, i32 1
  %62 = load i32, ptr %61, align 4, !tbaa !41
  %63 = icmp sgt i32 %62, 8
  br i1 %63, label %64, label %120

64:                                               ; preds = %59
  %65 = load ptr, ptr %3, align 8, !tbaa !37
  %66 = call zeroext i1 @has_flonum2(ptr noundef %65)
  br i1 %66, label %67, label %85

67:                                               ; preds = %64
  %68 = load ptr, ptr %3, align 8, !tbaa !37
  %69 = getelementptr inbounds nuw %struct.Type, ptr %68, i32 0, i32 1
  %70 = load i32, ptr %69, align 4, !tbaa !41
  %71 = icmp eq i32 %70, 12
  br i1 %71, label %72, label %78

72:                                               ; preds = %67
  %73 = load i32, ptr %5, align 4, !tbaa !7
  %74 = load ptr, ptr %2, align 8, !tbaa !11
  %75 = getelementptr inbounds nuw %struct.Obj, ptr %74, i32 0, i32 6
  %76 = load i32, ptr %75, align 8, !tbaa !43
  %77 = add nsw i32 %76, 8
  call void (ptr, ...) @println(ptr noundef @.str.46, i32 noundef %73, i32 noundef %77)
  br label %84

78:                                               ; preds = %67
  %79 = load i32, ptr %5, align 4, !tbaa !7
  %80 = load ptr, ptr %2, align 8, !tbaa !11
  %81 = getelementptr inbounds nuw %struct.Obj, ptr %80, i32 0, i32 6
  %82 = load i32, ptr %81, align 8, !tbaa !43
  %83 = add nsw i32 %82, 8
  call void (ptr, ...) @println(ptr noundef @.str.47, i32 noundef %79, i32 noundef %83)
  br label %84

84:                                               ; preds = %78, %72
  br label %119

85:                                               ; preds = %64
  call void @llvm.lifetime.start.p0(i64 8, ptr %7) #8
  %86 = load i32, ptr %4, align 4, !tbaa !7
  %87 = icmp eq i32 %86, 0
  %88 = select i1 %87, ptr @.str.258, ptr @.str.54
  store ptr %88, ptr %7, align 8, !tbaa !23
  call void @llvm.lifetime.start.p0(i64 8, ptr %8) #8
  %89 = load i32, ptr %4, align 4, !tbaa !7
  %90 = icmp eq i32 %89, 0
  %91 = select i1 %90, ptr @.str.85, ptr @.str.72
  store ptr %91, ptr %8, align 8, !tbaa !23
  call void @llvm.lifetime.start.p0(i64 4, ptr %9) #8
  store i32 8, ptr %9, align 4, !tbaa !7
  br label %92

92:                                               ; preds = %115, %85
  %93 = load i32, ptr %9, align 4, !tbaa !7
  %94 = load ptr, ptr %3, align 8, !tbaa !37
  %95 = getelementptr inbounds nuw %struct.Type, ptr %94, i32 0, i32 1
  %96 = load i32, ptr %95, align 4, !tbaa !41
  %97 = icmp slt i32 16, %96
  br i1 %97, label %98, label %99

98:                                               ; preds = %92
  br label %103

99:                                               ; preds = %92
  %100 = load ptr, ptr %3, align 8, !tbaa !37
  %101 = getelementptr inbounds nuw %struct.Type, ptr %100, i32 0, i32 1
  %102 = load i32, ptr %101, align 4, !tbaa !41
  br label %103

103:                                              ; preds = %99, %98
  %104 = phi i32 [ 16, %98 ], [ %102, %99 ]
  %105 = icmp slt i32 %93, %104
  br i1 %105, label %107, label %106

106:                                              ; preds = %103
  call void @llvm.lifetime.end.p0(i64 4, ptr %9) #8
  br label %118

107:                                              ; preds = %103
  %108 = load ptr, ptr %7, align 8, !tbaa !23
  %109 = load ptr, ptr %2, align 8, !tbaa !11
  %110 = getelementptr inbounds nuw %struct.Obj, ptr %109, i32 0, i32 6
  %111 = load i32, ptr %110, align 8, !tbaa !43
  %112 = load i32, ptr %9, align 4, !tbaa !7
  %113 = add nsw i32 %111, %112
  call void (ptr, ...) @println(ptr noundef @.str.50, ptr noundef %108, i32 noundef %113)
  %114 = load ptr, ptr %8, align 8, !tbaa !23
  call void (ptr, ...) @println(ptr noundef @.str.51, ptr noundef %114)
  br label %115

115:                                              ; preds = %107
  %116 = load i32, ptr %9, align 4, !tbaa !7
  %117 = add nsw i32 %116, 1
  store i32 %117, ptr %9, align 4, !tbaa !7
  br label %92, !llvm.loop !141

118:                                              ; preds = %106
  call void @llvm.lifetime.end.p0(i64 8, ptr %8) #8
  call void @llvm.lifetime.end.p0(i64 8, ptr %7) #8
  br label %119

119:                                              ; preds = %118, %84
  br label %120

120:                                              ; preds = %119, %59
  call void @llvm.lifetime.end.p0(i64 4, ptr %5) #8
  call void @llvm.lifetime.end.p0(i64 4, ptr %4) #8
  call void @llvm.lifetime.end.p0(i64 8, ptr %3) #8
  ret void
}