; Function Attrs: nofree nounwind uwtable
define internal fastcc void @copy_ret_buffer(ptr noundef nonnull readonly captures(none) %0) unnamed_addr #4 {
  %2 = getelementptr inbounds nuw i8, ptr %0, i64 16
  %3 = load ptr, ptr %2, align 8, !tbaa !28
  %4 = tail call fastcc noundef zeroext i1 @has_flonum(ptr noundef readonly %3, i32 noundef 0, i32 noundef 8, i32 noundef 0)
  %5 = getelementptr inbounds nuw i8, ptr %3, i64 4
  %6 = load i32, ptr %5, align 4, !tbaa !32
  br i1 %4, label %.loopexit35.sink.split, label %.preheader

.preheader:                                       ; preds = %1
  %7 = icmp sgt i32 %6, 0
  br i1 %7, label %.lr.ph, label %.loopexit35

.lr.ph:                                           ; preds = %.preheader
  %8 = getelementptr inbounds nuw i8, ptr %0, i64 40
  br label %12

.loopexit35.sink.split:                           ; preds = %1
  %9 = icmp eq i32 %6, 4
  %10 = getelementptr inbounds nuw i8, ptr %0, i64 40
  %11 = load i32, ptr %10, align 8, !tbaa !33
  %.str.255..str.32 = select i1 %9, ptr @.str.255, ptr @.str.32
  tail call void (ptr, ...) @println(ptr noundef nonnull %.str.255..str.32, i32 noundef %11)
  br label %.loopexit35

12:                                               ; preds = %.lr.ph, %12
  %.03137 = phi i32 [ 0, %.lr.ph ], [ %15, %12 ]
  %13 = load i32, ptr %8, align 8, !tbaa !33
  %14 = add nsw i32 %13, %.03137
  tail call void (ptr, ...) @println(ptr noundef nonnull @.str.256, i32 noundef %14)
  tail call void (ptr, ...) @println(ptr noundef nonnull @.str.257)
  %15 = add nuw nsw i32 %.03137, 1
  %16 = load i32, ptr %5, align 4, !tbaa !32
  %spec.select = tail call i32 @llvm.smin.i32(i32 %16, i32 8)
  %17 = icmp slt i32 %15, %spec.select
  br i1 %17, label %12, label %.loopexit35, !llvm.loop !132

.loopexit35:                                      ; preds = %12, %.loopexit35.sink.split, %.preheader
  %.030 = phi i32 [ 0, %.preheader ], [ 1, %.loopexit35.sink.split ], [ 0, %12 ]
  %18 = getelementptr inbounds nuw i8, ptr %3, i64 4
  %19 = load i32, ptr %18, align 4, !tbaa !32
  %20 = icmp sgt i32 %19, 8
  br i1 %20, label %21, label %.loopexit

21:                                               ; preds = %.loopexit35
  %22 = tail call fastcc noundef zeroext i1 @has_flonum(ptr noundef nonnull readonly %3, i32 noundef 8, i32 noundef 16, i32 noundef 0)
  br i1 %22, label %.loopexit.sink.split, label %.lr.ph40

.loopexit.sink.split:                             ; preds = %21
  %23 = icmp eq i32 %19, 12
  %24 = getelementptr inbounds nuw i8, ptr %0, i64 40
  %25 = load i32, ptr %24, align 8, !tbaa !33
  %26 = add nsw i32 %25, 8
  %.str.46..str.47 = select i1 %23, ptr @.str.46, ptr @.str.47
  tail call void (ptr, ...) @println(ptr noundef nonnull %.str.46..str.47, i32 noundef %.030, i32 noundef %26)
  br label %.loopexit

.lr.ph40:                                         ; preds = %21
  %27 = select i1 %4, ptr @.str.258, ptr @.str.54
  %28 = select i1 %4, ptr @.str.85, ptr @.str.72
  %29 = getelementptr inbounds nuw i8, ptr %0, i64 40
  br label %30

30:                                               ; preds = %.lr.ph40, %30
  %.039 = phi i32 [ 8, %.lr.ph40 ], [ %33, %30 ]
  %31 = load i32, ptr %29, align 8, !tbaa !33
  %32 = add nsw i32 %31, %.039
  tail call void (ptr, ...) @println(ptr noundef nonnull @.str.50, ptr noundef nonnull %27, i32 noundef %32)
  tail call void (ptr, ...) @println(ptr noundef nonnull @.str.51, ptr noundef nonnull %28)
  %33 = add nuw nsw i32 %.039, 1
  %34 = load i32, ptr %18, align 4, !tbaa !32
  %spec.select34 = tail call i32 @llvm.smin.i32(i32 %34, i32 16)
  %35 = icmp slt i32 %33, %spec.select34
  br i1 %35, label %30, label %.loopexit, !llvm.loop !133

.loopexit:                                        ; preds = %30, %.loopexit.sink.split, %.loopexit35
  ret void
}